target datalayout = "e-m:e-p270:32:32-p271:32:32-p272:64:64-i64:64-i128:128-f80:128-n8:16:32:64-S128"
target triple = "x86_64-pc-linux-gnu"

%"class.btConvexHullInternal::Int128" = type { i64, i64 }
%"class.btConvexHullInternal::Edge" = type <{ ptr, ptr, ptr, ptr, ptr, i32, [4 x i8] }>
%"class.btConvexHullInternal::Vertex" = type <{ ptr, ptr, ptr, ptr, ptr, %"class.btConvexHullInternal::PointR128", %"class.btConvexHullInternal::Point32", i32, [4 x i8] }>
%"class.btConvexHullInternal::PointR128" = type { %"class.btConvexHullInternal::Int128", %"class.btConvexHullInternal::Int128", %"class.btConvexHullInternal::Int128", %"class.btConvexHullInternal::Int128" }
%"class.btConvexHullInternal::Point32" = type { i32, i32, i32, i32 }
%"class.btConvexHullInternal::Point64" = type { i64, i64, i64 }

; Function Attrs: mustprogress nounwind uwtable
define linkonce_odr dso_local void @_ZN20btConvexHullInternal7Point32C2Eiii(ptr noundef nonnull align 4 dereferenceable(16) %0, i32 noundef %1, i32 noundef %2, i32 noundef %3) unnamed_addr #1 comdat align 2 {
  %5 = alloca ptr, align 8
  %6 = alloca i32, align 4
  %7 = alloca i32, align 4
  %8 = alloca i32, align 4
  store ptr %0, ptr %5, align 8, !tbaa !102
  store i32 %1, ptr %6, align 4, !tbaa !9
  store i32 %2, ptr %7, align 4, !tbaa !9
  store i32 %3, ptr %8, align 4, !tbaa !9
  %9 = load ptr, ptr %5, align 8
  %10 = getelementptr inbounds nuw %"class.btConvexHullInternal::Point32", ptr %9, i32 0, i32 0
  %11 = load i32, ptr %6, align 4, !tbaa !9
  store i32 %11, ptr %10, align 4, !tbaa !104
  %12 = getelementptr inbounds nuw %"class.btConvexHullInternal::Point32", ptr %9, i32 0, i32 1
  %13 = load i32, ptr %7, align 4, !tbaa !9
  store i32 %13, ptr %12, align 4, !tbaa !105
  %14 = getelementptr inbounds nuw %"class.btConvexHullInternal::Point32", ptr %9, i32 0, i32 2
  %15 = load i32, ptr %8, align 4, !tbaa !9
  store i32 %15, ptr %14, align 4, !tbaa !106
  %16 = getelementptr inbounds nuw %"class.btConvexHullInternal::Point32", ptr %9, i32 0, i32 3
  store i32 -1, ptr %16, align 4, !tbaa !130
  ret void
}

; Function Attrs: mustprogress uwtable
define linkonce_odr dso_local { i64, i64 } @_ZNK20btConvexHullInternal7Point32miERKS0_(ptr noundef nonnull align 4 dereferenceable(16) %0, ptr noundef nonnull align 4 dereferenceable(16) %1) #2 comdat align 2 {
  %3 = alloca %"class.btConvexHullInternal::Point32", align 4
  %4 = alloca ptr, align 8
  %5 = alloca ptr, align 8
  store ptr %0, ptr %4, align 8, !tbaa !102
  store ptr %1, ptr %5, align 8, !tbaa !102
  %6 = load ptr, ptr %4, align 8
  %7 = getelementptr inbounds nuw %"class.btConvexHullInternal::Point32", ptr %6, i32 0, i32 0
  %8 = load i32, ptr %7, align 4, !tbaa !104
  %9 = load ptr, ptr %5, align 8, !tbaa !102
  %10 = getelementptr inbounds nuw %"class.btConvexHullInternal::Point32", ptr %9, i32 0, i32 0
  %11 = load i32, ptr %10, align 4, !tbaa !104
  %12 = sub nsw i32 %8, %11
  %13 = getelementptr inbounds nuw %"class.btConvexHullInternal::Point32", ptr %6, i32 0, i32 1
  %14 = load i32, ptr %13, align 4, !tbaa !105
  %15 = load ptr, ptr %5, align 8, !tbaa !102
  %16 = getelementptr inbounds nuw %"class.btConvexHullInternal::Point32", ptr %15, i32 0, i32 1
  %17 = load i32, ptr %16, align 4, !tbaa !105
  %18 = sub nsw i32 %14, %17
  %19 = getelementptr inbounds nuw %"class.btConvexHullInternal::Point32", ptr %6, i32 0, i32 2
  %20 = load i32, ptr %19, align 4, !tbaa !106
  %21 = load ptr, ptr %5, align 8, !tbaa !102
  %22 = getelementptr inbounds nuw %"class.btConvexHullInternal::Point32", ptr %21, i32 0, i32 2
  %23 = load i32, ptr %22, align 4, !tbaa !106
  %24 = sub nsw i32 %20, %23
  call void @_ZN20btConvexHullInternal7Point32C2Eiii(ptr noundef nonnull align 4 dereferenceable(16) %3, i32 noundef %12, i32 noundef %18, i32 noundef %24)
  %25 = load { i64, i64 }, ptr %3, align 4
  ret { i64, i64 } %25
}

; Function Attrs: mustprogress nounwind uwtable
define linkonce_odr dso_local void @_ZN20btConvexHullInternal7Point64C2Elll(ptr noundef nonnull align 8 dereferenceable(24) %0, i64 noundef %1, i64 noundef %2, i64 noundef %3) unnamed_addr #1 comdat align 2 {
  %5 = alloca ptr, align 8
  %6 = alloca i64, align 8
  %7 = alloca i64, align 8
  %8 = alloca i64, align 8
  store ptr %0, ptr %5, align 8, !tbaa !116
  store i64 %1, ptr %6, align 8, !tbaa !14
  store i64 %2, ptr %7, align 8, !tbaa !14
  store i64 %3, ptr %8, align 8, !tbaa !14
  %9 = load ptr, ptr %5, align 8
  %10 = getelementptr inbounds nuw %"class.btConvexHullInternal::Point64", ptr %9, i32 0, i32 0
  %11 = load i64, ptr %6, align 8, !tbaa !14
  store i64 %11, ptr %10, align 8, !tbaa !118
  %12 = getelementptr inbounds nuw %"class.btConvexHullInternal::Point64", ptr %9, i32 0, i32 1
  %13 = load i64, ptr %7, align 8, !tbaa !14
  store i64 %13, ptr %12, align 8, !tbaa !120
  %14 = getelementptr inbounds nuw %"class.btConvexHullInternal::Point64", ptr %9, i32 0, i32 2
  %15 = load i64, ptr %8, align 8, !tbaa !14
  store i64 %15, ptr %14, align 8, !tbaa !121
  ret void
}

; Function Attrs: mustprogress nounwind uwtable
define linkonce_odr dso_local noundef i64 @_ZNK20btConvexHullInternal7Point643dotERKS0_(ptr noundef nonnull align 8 dereferenceable(24) %0, ptr noundef nonnull align 8 dereferenceable(24) %1) #1 comdat align 2 {
  %3 = alloca ptr, align 8
  %4 = alloca ptr, align 8
  store ptr %0, ptr %3, align 8, !tbaa !116
  store ptr %1, ptr %4, align 8, !tbaa !116
  %5 = load ptr, ptr %3, align 8
  %6 = getelementptr inbounds nuw %"class.btConvexHullInternal::Point64", ptr %5, i32 0, i32 0
  %7 = load i64, ptr %6, align 8, !tbaa !118
  %8 = load ptr, ptr %4, align 8, !tbaa !116
  %9 = getelementptr inbounds nuw %"class.btConvexHullInternal::Point64", ptr %8, i32 0, i32 0
  %10 = load i64, ptr %9, align 8, !tbaa !118
  %11 = mul nsw i64 %7, %10
  %12 = getelementptr inbounds nuw %"class.btConvexHullInternal::Point64", ptr %5, i32 0, i32 1
  %13 = load i64, ptr %12, align 8, !tbaa !120
  %14 = load ptr, ptr %4, align 8, !tbaa !116
  %15 = getelementptr inbounds nuw %"class.btConvexHullInternal::Point64", ptr %14, i32 0, i32 1
  %16 = load i64, ptr %15, align 8, !tbaa !120
  %17 = mul nsw i64 %13, %16
  %18 = add nsw i64 %11, %17
  %19 = getelementptr inbounds nuw %"class.btConvexHullInternal::Point64", ptr %5, i32 0, i32 2
  %20 = load i64, ptr %19, align 8, !tbaa !121
  %21 = load ptr, ptr %4, align 8, !tbaa !116
  %22 = getelementptr inbounds nuw %"class.btConvexHullInternal::Point64", ptr %21, i32 0, i32 2
  %23 = load i64, ptr %22, align 8, !tbaa !121
  %24 = mul nsw i64 %20, %23
  %25 = add nsw i64 %18, %24
  ret i64 %25
}

; Function Attrs: mustprogress uwtable
define linkonce_odr dso_local { i64, i64 } @_ZNK20btConvexHullInternal6VertexmiERKS0_(ptr noundef nonnull align 8 dereferenceable(124) %0, ptr noundef nonnull align 8 dereferenceable(124) %1) #2 comdat align 2 {
  %3 = alloca %"class.btConvexHullInternal::Point32", align 4
  %4 = alloca ptr, align 8
  %5 = alloca ptr, align 8
  store ptr %0, ptr %4, align 8, !tbaa !40
  store ptr %1, ptr %5, align 8, !tbaa !40
  %6 = load ptr, ptr %4, align 8
  %7 = getelementptr inbounds nuw %"class.btConvexHullInternal::Vertex", ptr %6, i32 0, i32 6
  %8 = load ptr, ptr %5, align 8, !tbaa !40
  %9 = getelementptr inbounds nuw %"class.btConvexHullInternal::Vertex", ptr %8, i32 0, i32 6
  %10 = call { i64, i64 } @_ZNK20btConvexHullInternal7Point32miERKS0_(ptr noundef nonnull align 4 dereferenceable(16) %7, ptr noundef nonnull align 4 dereferenceable(16) %9)
  %11 = getelementptr inbounds nuw { i64, i64 }, ptr %3, i32 0, i32 0
  %12 = extractvalue { i64, i64 } %10, 0
  store i64 %12, ptr %11, align 4
  %13 = getelementptr inbounds nuw { i64, i64 }, ptr %3, i32 0, i32 1
  %14 = extractvalue { i64, i64 } %10, 1
  store i64 %14, ptr %13, align 4
  %15 = load { i64, i64 }, ptr %3, align 4
  ret { i64, i64 } %15
}

; Function Attrs: mustprogress uwtable
define linkonce_odr dso_local void @_ZNK20btConvexHullInternal7Point325crossERKS0_(ptr dead_on_unwind noalias writable sret(%"class.btConvexHullInternal::Point64") align 8 %0, ptr noundef nonnull align 4 dereferenceable(16) %1, ptr noundef nonnull align 4 dereferenceable(16) %2) #2 comdat align 2 {
  %4 = alloca ptr, align 8
  %5 = alloca ptr, align 8
  store ptr %1, ptr %4, align 8, !tbaa !102
  store ptr %2, ptr %5, align 8, !tbaa !102
  %6 = load ptr, ptr %4, align 8
  %7 = getelementptr inbounds nuw %"class.btConvexHullInternal::Point32", ptr %6, i32 0, i32 1
  %8 = load i32, ptr %7, align 4, !tbaa !105
  %9 = sext i32 %8 to i64
  %10 = load ptr, ptr %5, align 8, !tbaa !102
  %11 = getelementptr inbounds nuw %"class.btConvexHullInternal::Point32", ptr %10, i32 0, i32 2
  %12 = load i32, ptr %11, align 4, !tbaa !106
  %13 = sext i32 %12 to i64
  %14 = mul nsw i64 %9, %13
  %15 = getelementptr inbounds nuw %"class.btConvexHullInternal::Point32", ptr %6, i32 0, i32 2
  %16 = load i32, ptr %15, align 4, !tbaa !106
  %17 = sext i32 %16 to i64
  %18 = load ptr, ptr %5, align 8, !tbaa !102
  %19 = getelementptr inbounds nuw %"class.btConvexHullInternal::Point32", ptr %18, i32 0, i32 1
  %20 = load i32, ptr %19, align 4, !tbaa !105
  %21 = sext i32 %20 to i64
  %22 = mul nsw i64 %17, %21
  %23 = sub nsw i64 %14, %22
  %24 = getelementptr inbounds nuw %"class.btConvexHullInternal::Point32", ptr %6, i32 0, i32 2
  %25 = load i32, ptr %24, align 4, !tbaa !106
  %26 = sext i32 %25 to i64
  %27 = load ptr, ptr %5, align 8, !tbaa !102
  %28 = getelementptr inbounds nuw %"class.btConvexHullInternal::Point32", ptr %27, i32 0, i32 0
  %29 = load i32, ptr %28, align 4, !tbaa !104
  %30 = sext i32 %29 to i64
  %31 = mul nsw i64 %26, %30
  %32 = getelementptr inbounds nuw %"class.btConvexHullInternal::Point32", ptr %6, i32 0, i32 0
  %33 = load i32, ptr %32, align 4, !tbaa !104
  %34 = sext i32 %33 to i64
  %35 = load ptr, ptr %5, align 8, !tbaa !102
  %36 = getelementptr inbounds nuw %"class.btConvexHullInternal::Point32", ptr %35, i32 0, i32 2
  %37 = load i32, ptr %36, align 4, !tbaa !106
  %38 = sext i32 %37 to i64
  %39 = mul nsw i64 %34, %38
  %40 = sub nsw i64 %31, %39
  %41 = getelementptr inbounds nuw %"class.btConvexHullInternal::Point32", ptr %6, i32 0, i32 0
  %42 = load i32, ptr %41, align 4, !tbaa !104
  %43 = sext i32 %42 to i64
  %44 = load ptr, ptr %5, align 8, !tbaa !102
  %45 = getelementptr inbounds nuw %"class.btConvexHullInternal::Point32", ptr %44, i32 0, i32 1
  %46 = load i32, ptr %45, align 4, !tbaa !105
  %47 = sext i32 %46 to i64
  %48 = mul nsw i64 %43, %47
  %49 = getelementptr inbounds nuw %"class.btConvexHullInternal::Point32", ptr %6, i32 0, i32 1
  %50 = load i32, ptr %49, align 4, !tbaa !105
  %51 = sext i32 %50 to i64
  %52 = load ptr, ptr %5, align 8, !tbaa !102
  %53 = getelementptr inbounds nuw %"class.btConvexHullInternal::Point32", ptr %52, i32 0, i32 0
  %54 = load i32, ptr %53, align 4, !tbaa !104
  %55 = sext i32 %54 to i64
  %56 = mul nsw i64 %51, %55
  %57 = sub nsw i64 %48, %56
  call void @_ZN20btConvexHullInternal7Point64C2Elll(ptr noundef nonnull align 8 dereferenceable(24) %0, i64 noundef %23, i64 noundef %40, i64 noundef %57)
  ret void
}

; Function Attrs: mustprogress uwtable
define dso_local noundef i32 @_ZN20btConvexHullInternal14getOrientationEPKNS_4EdgeES2_RKNS_7Point32ES5_(ptr noundef %0, ptr noundef %1, ptr noundef nonnull align 4 dereferenceable(16) %2, ptr noundef nonnull align 4 dereferenceable(16) %3) #2 align 2 {
  %5 = alloca i32, align 4
  %6 = alloca ptr, align 8
  %7 = alloca ptr, align 8
  %8 = alloca ptr, align 8
  %9 = alloca ptr, align 8
  %10 = alloca %"class.btConvexHullInternal::Point64", align 8
  %11 = alloca %"class.btConvexHullInternal::Point64", align 8
  %12 = alloca %"class.btConvexHullInternal::Point32", align 4
  %13 = alloca %"class.btConvexHullInternal::Point32", align 4
  %14 = alloca i64, align 8
  store ptr %0, ptr %6, align 8, !tbaa !42
  store ptr %1, ptr %7, align 8, !tbaa !42
  store ptr %2, ptr %8, align 8, !tbaa !102
  store ptr %3, ptr %9, align 8, !tbaa !102
  %15 = load ptr, ptr %6, align 8, !tbaa !42
  %16 = getelementptr inbounds nuw %"class.btConvexHullInternal::Edge", ptr %15, i32 0, i32 0
  %17 = load ptr, ptr %16, align 8, !tbaa !73
  %18 = load ptr, ptr %7, align 8, !tbaa !42
  %19 = icmp eq ptr %17, %18
  br i1 %19, label %20, label %60

20:                                               ; preds = %4
  %21 = load ptr, ptr %6, align 8, !tbaa !42
  %22 = getelementptr inbounds nuw %"class.btConvexHullInternal::Edge", ptr %21, i32 0, i32 1
  %23 = load ptr, ptr %22, align 8, !tbaa !107
  %24 = load ptr, ptr %7, align 8, !tbaa !42
  %25 = icmp eq ptr %23, %24
  br i1 %25, label %26, label %59

26:                                               ; preds = %20
  call void @llvm.lifetime.start.p0(i64 24, ptr %10) #13
  %27 = load ptr, ptr %9, align 8, !tbaa !102
  %28 = load ptr, ptr %8, align 8, !tbaa !102
  call void @_ZNK20btConvexHullInternal7Point325crossERKS0_(ptr dead_on_unwind writable sret(%"class.btConvexHullInternal::Point64") align 8 %10, ptr noundef nonnull align 4 dereferenceable(16) %27, ptr noundef nonnull align 4 dereferenceable(16) %28)
  call void @llvm.lifetime.start.p0(i64 24, ptr %11) #13
  call void @llvm.lifetime.start.p0(i64 16, ptr %12) #13
  %29 = load ptr, ptr %6, align 8, !tbaa !42
  %30 = getelementptr inbounds nuw %"class.btConvexHullInternal::Edge", ptr %29, i32 0, i32 3
  %31 = load ptr, ptr %30, align 8, !tbaa !60
  %32 = load ptr, ptr %7, align 8, !tbaa !42
  %33 = getelementptr inbounds nuw %"class.btConvexHullInternal::Edge", ptr %32, i32 0, i32 2
  %34 = load ptr, ptr %33, align 8, !tbaa !44
  %35 = getelementptr inbounds nuw %"class.btConvexHullInternal::Edge", ptr %34, i32 0, i32 3
  %36 = load ptr, ptr %35, align 8, !tbaa !60
  %37 = call { i64, i64 } @_ZNK20btConvexHullInternal6VertexmiERKS0_(ptr noundef nonnull align 8 dereferenceable(124) %31, ptr noundef nonnull align 8 dereferenceable(124) %36)
  %38 = getelementptr inbounds nuw { i64, i64 }, ptr %12, i32 0, i32 0
  %39 = extractvalue { i64, i64 } %37, 0
  store i64 %39, ptr %38, align 4
  %40 = getelementptr inbounds nuw { i64, i64 }, ptr %12, i32 0, i32 1
  %41 = extractvalue { i64, i64 } %37, 1
  store i64 %41, ptr %40, align 4
  call void @llvm.lifetime.start.p0(i64 16, ptr %13) #13
  %42 = load ptr, ptr %7, align 8, !tbaa !42
  %43 = getelementptr inbounds nuw %"class.btConvexHullInternal::Edge", ptr %42, i32 0, i32 3
  %44 = load ptr, ptr %43, align 8, !tbaa !60
  %45 = load ptr, ptr %7, align 8, !tbaa !42
  %46 = getelementptr inbounds nuw %"class.btConvexHullInternal::Edge", ptr %45, i32 0, i32 2
  %47 = load ptr, ptr %46, align 8, !tbaa !44
  %48 = getelementptr inbounds nuw %"class.btConvexHullInternal::Edge", ptr %47, i32 0, i32 3
  %49 = load ptr, ptr %48, align 8, !tbaa !60
  %50 = call { i64, i64 } @_ZNK20btConvexHullInternal6VertexmiERKS0_(ptr noundef nonnull align 8 dereferenceable(124) %44, ptr noundef nonnull align 8 dereferenceable(124) %49)
  %51 = getelementptr inbounds nuw { i64, i64 }, ptr %13, i32 0, i32 0
  %52 = extractvalue { i64, i64 } %50, 0
  store i64 %52, ptr %51, align 4
  %53 = getelementptr inbounds nuw { i64, i64 }, ptr %13, i32 0, i32 1
  %54 = extractvalue { i64, i64 } %50, 1
  store i64 %54, ptr %53, align 4
  call void @_ZNK20btConvexHullInternal7Point325crossERKS0_(ptr dead_on_unwind writable sret(%"class.btConvexHullInternal::Point64") align 8 %11, ptr noundef nonnull align 4 dereferenceable(16) %12, ptr noundef nonnull align 4 dereferenceable(16) %13)
  call void @llvm.lifetime.end.p0(i64 16, ptr %13) #13
  call void @llvm.lifetime.end.p0(i64 16, ptr %12) #13
  call void @llvm.lifetime.start.p0(i64 8, ptr %14) #13
  %55 = call noundef i64 @_ZNK20btConvexHullInternal7Point643dotERKS0_(ptr noundef nonnull align 8 dereferenceable(24) %10, ptr noundef nonnull align 8 dereferenceable(24) %11)
  store i64 %55, ptr %14, align 8, !tbaa !14
  %56 = load i64, ptr %14, align 8, !tbaa !14
  %57 = icmp sgt i64 %56, 0
  %58 = select i1 %57, i32 2, i32 1
  store i32 %58, ptr %5, align 4
  call void @llvm.lifetime.end.p0(i64 8, ptr %14) #13
  call void @llvm.lifetime.end.p0(i64 24, ptr %11) #13
  call void @llvm.lifetime.end.p0(i64 24, ptr %10) #13
  br label %68

59:                                               ; preds = %20
  store i32 2, ptr %5, align 4
  br label %68

60:                                               ; preds = %4
  %61 = load ptr, ptr %6, align 8, !tbaa !42
  %62 = getelementptr inbounds nuw %"class.btConvexHullInternal::Edge", ptr %61, i32 0, i32 1
  %63 = load ptr, ptr %62, align 8, !tbaa !107
  %64 = load ptr, ptr %7, align 8, !tbaa !42
  %65 = icmp eq ptr %63, %64
  br i1 %65, label %66, label %67

66:                                               ; preds = %60
  store i32 1, ptr %5, align 4
  br label %68

67:                                               ; preds = %60
  store i32 0, ptr %5, align 4
  br label %68

68:                                               ; preds = %67, %66, %59, %26
  %69 = load i32, ptr %5, align 4
  ret i32 %69
}