; Function Attrs: mustprogress nofree norecurse nosync nounwind willreturn memory(read, inaccessiblemem: none) uwtable
define dso_local noundef range(i32 0, 3) i32 @_ZN20btConvexHullInternal14getOrientationEPKNS_4EdgeES2_RKNS_7Point32ES5_(ptr noundef readonly captures(none) %0, ptr noundef readonly captures(address) %1, ptr noundef nonnull readonly align 4 captures(none) dereferenceable(16) %2, ptr noundef nonnull readonly align 4 captures(none) dereferenceable(16) %3) local_unnamed_addr #6 align 2 {
  %5 = load ptr, ptr %0, align 8, !tbaa !35
  %6 = icmp eq ptr %5, %1
  %7 = getelementptr inbounds nuw i8, ptr %0, i64 8
  %8 = load ptr, ptr %7, align 8, !tbaa !81
  %9 = icmp eq ptr %8, %1
  br i1 %6, label %10, label %91

10:                                               ; preds = %4
  br i1 %9, label %11, label %92

11:                                               ; preds = %10
  %12 = getelementptr inbounds nuw i8, ptr %3, i64 4
  %13 = load i32, ptr %12, align 4, !tbaa !78, !noalias !103
  %14 = sext i32 %13 to i64
  %15 = getelementptr inbounds nuw i8, ptr %2, i64 8
  %16 = load i32, ptr %15, align 4, !tbaa !79, !noalias !103
  %17 = sext i32 %16 to i64
  %18 = mul nsw i64 %17, %14
  %19 = getelementptr inbounds nuw i8, ptr %3, i64 8
  %20 = load i32, ptr %19, align 4, !tbaa !79, !noalias !103
  %21 = sext i32 %20 to i64
  %22 = getelementptr inbounds nuw i8, ptr %2, i64 4
  %23 = load i32, ptr %22, align 4, !tbaa !78, !noalias !103
  %24 = sext i32 %23 to i64
  %25 = mul nsw i64 %24, %21
  %26 = sub nsw i64 %18, %25
  %27 = load i32, ptr %2, align 4, !tbaa !77, !noalias !103
  %28 = sext i32 %27 to i64
  %29 = mul nsw i64 %28, %21
  %30 = load i32, ptr %3, align 4, !tbaa !77, !noalias !103
  %31 = sext i32 %30 to i64
  %32 = mul nsw i64 %31, %17
  %33 = sub nsw i64 %29, %32
  %34 = mul nsw i64 %31, %24
  %35 = mul nsw i64 %28, %14
  %36 = sub nsw i64 %34, %35
  %37 = getelementptr inbounds nuw i8, ptr %0, i64 24
  %38 = load ptr, ptr %37, align 8, !tbaa !53
  %39 = getelementptr inbounds nuw i8, ptr %1, i64 16
  %40 = load ptr, ptr %39, align 8, !tbaa !41
  %41 = getelementptr inbounds nuw i8, ptr %40, i64 24
  %42 = load ptr, ptr %41, align 8, !tbaa !53
  %43 = getelementptr inbounds nuw i8, ptr %38, i64 104
  %44 = getelementptr inbounds nuw i8, ptr %42, i64 104
  %45 = load i32, ptr %43, align 4, !tbaa !77
  %46 = load i32, ptr %44, align 4, !tbaa !77
  %47 = sub nsw i32 %45, %46
  %48 = getelementptr inbounds nuw i8, ptr %38, i64 108
  %49 = load i32, ptr %48, align 4, !tbaa !78
  %50 = getelementptr inbounds nuw i8, ptr %42, i64 108
  %51 = load i32, ptr %50, align 4, !tbaa !78
  %52 = sub nsw i32 %49, %51
  %53 = getelementptr inbounds nuw i8, ptr %38, i64 112
  %54 = load i32, ptr %53, align 4, !tbaa !79
  %55 = getelementptr inbounds nuw i8, ptr %42, i64 112
  %56 = load i32, ptr %55, align 4, !tbaa !79
  %57 = sub nsw i32 %54, %56
  %58 = getelementptr inbounds nuw i8, ptr %1, i64 24
  %59 = load ptr, ptr %58, align 8, !tbaa !53
  %60 = getelementptr inbounds nuw i8, ptr %59, i64 104
  %61 = load i32, ptr %60, align 4, !tbaa !77
  %62 = sub nsw i32 %61, %46
  %63 = getelementptr inbounds nuw i8, ptr %59, i64 108
  %64 = load i32, ptr %63, align 4, !tbaa !78
  %65 = sub nsw i32 %64, %51
  %66 = getelementptr inbounds nuw i8, ptr %59, i64 112
  %67 = load i32, ptr %66, align 4, !tbaa !79
  %68 = sub nsw i32 %67, %56
  %69 = sext i32 %52 to i64
  %70 = sext i32 %68 to i64
  %71 = mul nsw i64 %70, %69
  %72 = sext i32 %57 to i64
  %73 = sext i32 %65 to i64
  %74 = mul nsw i64 %73, %72
  %75 = sub nsw i64 %71, %74
  %76 = sext i32 %62 to i64
  %77 = mul nsw i64 %76, %72
  %78 = sext i32 %47 to i64
  %79 = mul nsw i64 %70, %78
  %80 = sub nsw i64 %77, %79
  %81 = mul nsw i64 %73, %78
  %82 = mul nsw i64 %76, %69
  %83 = sub nsw i64 %81, %82
  %84 = mul nsw i64 %75, %26
  %85 = mul nsw i64 %80, %33
  %86 = mul nsw i64 %83, %36
  %87 = add i64 %84, %86
  %88 = add i64 %87, %85
  %89 = icmp sgt i64 %88, 0
  %90 = select i1 %89, i32 2, i32 1
  br label %92

91:                                               ; preds = %4
  %. = zext i1 %9 to i32
  br label %92

92:                                               ; preds = %91, %10, %11
  %.0 = phi i32 [ %90, %11 ], [ 2, %10 ], [ %., %91 ]
  ret i32 %.0
}